; Function Attrs: nounwind uwtable
define internal range(i32 0, 2) i32 @test_wolfCrypt_Cleanup() #0 {
  %1 = tail call i32 @wolfCrypt_Cleanup() #27
  %2 = icmp eq i32 %1, 0
  br i1 %2, label %15, label %3

3:                                                ; preds = %0
  %4 = tail call i32 (ptr, ...) @printf(ptr noundef nonnull dereferenceable(1) @.str, ptr noundef nonnull @.str.1, i32 noundef 673)
  %5 = load ptr, ptr @stdout, align 8, !tbaa !22
  %6 = tail call i64 @fwrite(ptr nonnull @.str.2, i64 15, i64 1, ptr %5)
  %7 = tail call i32 (ptr, ...) @printf(ptr noundef nonnull dereferenceable(1) @.str.3, ptr noundef nonnull @.str.1569, ptr noundef nonnull @.str.1024)
  %8 = load ptr, ptr @stdout, align 8, !tbaa !22
  %9 = tail call i64 @fwrite(ptr nonnull @.str.6, i64 15, i64 1, ptr %8)
  %10 = tail call i32 (ptr, ...) @printf(ptr noundef nonnull dereferenceable(1) @.str.7, i32 noundef %1, i32 noundef 0)
  %11 = load ptr, ptr @stdout, align 8, !tbaa !22
  %12 = tail call i64 @fwrite(ptr nonnull @.str.8, i64 2, i64 1, ptr %11)
  %13 = load ptr, ptr @stdout, align 8, !tbaa !22
  %14 = tail call i32 @fflush(ptr noundef %13)
  br label %15

15:                                               ; preds = %0, %3
  %.0 = phi i32 [ 0, %3 ], [ 1, %0 ]
  ret i32 %.0
}